; ModuleID = '45/394.c'
source_filename = "45/394.c"
target datalayout = "e-m:e-p270:32:32-p271:32:32-p272:64:64-i64:64-f80:128-n8:16:32:64-S128"
target triple = "x86_64-pc-linux-gnu"

@.str = private unnamed_addr constant [5 x i8] c"%s%s\00", align 1
@main.j = internal global i32 0, align 4
@.str.1 = private unnamed_addr constant [3 x i8] c"%d\00", align 1

; Function Attrs: noinline nounwind uwtable
define dso_local i32 @main(i32 %0, i8** %1) #0 {
  %3 = alloca i32, align 4
  %4 = alloca i32, align 4
  %5 = alloca i8**, align 8
  %6 = alloca [50 x i8], align 16
  %7 = alloca [50 x i8], align 16
  %8 = alloca [50 x [50 x i8]], align 16
  %9 = alloca i32, align 4
  %10 = alloca i32, align 4
  %11 = alloca i32, align 4
  %12 = alloca i32, align 4
  %13 = alloca i32, align 4
  store i32 0, i32* %3, align 4
  store i32 %0, i32* %4, align 4
  store i8** %1, i8*** %5, align 8
  %14 = getelementptr inbounds [50 x i8], [50 x i8]* %6, i64 0, i64 0
  %15 = getelementptr inbounds [50 x i8], [50 x i8]* %7, i64 0, i64 0
  %16 = call i32 (i8*, ...) @__isoc99_scanf(i8* getelementptr inbounds ([5 x i8], [5 x i8]* @.str, i64 0, i64 0), i8* %14, i8* %15)
  %17 = getelementptr inbounds [50 x i8], [50 x i8]* %6, i64 0, i64 0
  %18 = call i64 @strlen(i8* %17) #3
  %19 = trunc i64 %18 to i32
  store i32 %19, i32* %9, align 4
  %20 = getelementptr inbounds [50 x i8], [50 x i8]* %7, i64 0, i64 0
  %21 = call i64 @strlen(i8* %20) #3
  %22 = trunc i64 %21 to i32
  store i32 %22, i32* %10, align 4
  %23 = load i32, i32* %10, align 4
  %24 = load i32, i32* %9, align 4
  %25 = sub nsw i32 %23, %24
  %26 = add nsw i32 %25, 1
  store i32 %26, i32* %13, align 4
  store i32 0, i32* %11, align 4
  br label %27

27:                                               ; preds = %75, %2
  %28 = load i32, i32* %11, align 4
  %29 = load i32, i32* %13, align 4
  %30 = icmp slt i32 %28, %29
  br i1 %30, label %31, label %78

31:                                               ; preds = %27
  store i32 0, i32* %12, align 4
  br label %32

32:                                               ; preds = %69, %31
  %33 = load i32, i32* @main.j, align 4
  %34 = load i32, i32* %10, align 4
  %35 = icmp slt i32 %33, %34
  %36 = zext i1 %35 to i32
  %37 = load i32, i32* %12, align 4
  %38 = load i32, i32* %9, align 4
  %39 = icmp slt i32 %37, %38
  br i1 %39, label %40, label %74

40:                                               ; preds = %32
  %41 = getelementptr inbounds [50 x i8], [50 x i8]* %7, i64 0, i64 0
  %42 = load i32, i32* @main.j, align 4
  %43 = sext i32 %42 to i64
  %44 = getelementptr inbounds i8, i8* %41, i64 %43
  %45 = load i8, i8* %44, align 1
  %46 = load i32, i32* %11, align 4
  %47 = sext i32 %46 to i64
  %48 = getelementptr inbounds [50 x [50 x i8]], [50 x [50 x i8]]* %8, i64 0, i64 %47
  %49 = load i32, i32* %12, align 4
  %50 = sext i32 %49 to i64
  %51 = getelementptr inbounds [50 x i8], [50 x i8]* %48, i64 0, i64 %50
  store i8 %45, i8* %51, align 1
  %52 = load i32, i32* %12, align 4
  %53 = load i32, i32* %9, align 4
  %54 = sub nsw i32 %53, 1
  %55 = icmp eq i32 %52, %54
  br i1 %55, label %56, label %68

56:                                               ; preds = %40
  %57 = load i32, i32* %11, align 4
  %58 = sext i32 %57 to i64
  %59 = getelementptr inbounds [50 x [50 x i8]], [50 x [50 x i8]]* %8, i64 0, i64 %58
  %60 = load i32, i32* %12, align 4
  %61 = add nsw i32 %60, 1
  %62 = sext i32 %61 to i64
  %63 = getelementptr inbounds [50 x i8], [50 x i8]* %59, i64 0, i64 %62
  store i8 0, i8* %63, align 1
  %64 = load i32, i32* @main.j, align 4
  %65 = load i32, i32* %9, align 4
  %66 = sub nsw i32 %64, %65
  %67 = add nsw i32 %66, 2
  store i32 %67, i32* @main.j, align 4
  br label %74

68:                                               ; preds = %40
  br label %69

69:                                               ; preds = %68
  %70 = load i32, i32* @main.j, align 4
  %71 = add nsw i32 %70, 1
  store i32 %71, i32* @main.j, align 4
  %72 = load i32, i32* %12, align 4
  %73 = add nsw i32 %72, 1
  store i32 %73, i32* %12, align 4
  br label %32

74:                                               ; preds = %56, %32
  br label %75

75:                                               ; preds = %74
  %76 = load i32, i32* %11, align 4
  %77 = add nsw i32 %76, 1
  store i32 %77, i32* %11, align 4
  br label %27

78:                                               ; preds = %27
  store i32 0, i32* %11, align 4
  br label %79

79:                                               ; preds = %93, %78
  %80 = load i32, i32* %11, align 4
  %81 = load i32, i32* %13, align 4
  %82 = icmp slt i32 %80, %81
  br i1 %82, label %83, label %96

83:                                               ; preds = %79
  %84 = getelementptr inbounds [50 x i8], [50 x i8]* %6, i64 0, i64 0
  %85 = load i32, i32* %11, align 4
  %86 = sext i32 %85 to i64
  %87 = getelementptr inbounds [50 x [50 x i8]], [50 x [50 x i8]]* %8, i64 0, i64 %86
  %88 = getelementptr inbounds [50 x i8], [50 x i8]* %87, i64 0, i64 0
  %89 = call i32 @strcmp(i8* %84, i8* %88) #3
  %90 = icmp eq i32 %89, 0
  br i1 %90, label %91, label %92

91:                                               ; preds = %83
  br label %96

92:                                               ; preds = %83
  br label %93

93:                                               ; preds = %92
  %94 = load i32, i32* %11, align 4
  %95 = add nsw i32 %94, 1
  store i32 %95, i32* %11, align 4
  br label %79

96:                                               ; preds = %91, %79
  %97 = load i32, i32* %11, align 4
  %98 = call i32 (i8*, ...) @printf(i8* getelementptr inbounds ([3 x i8], [3 x i8]* @.str.1, i64 0, i64 0), i32 %97)
  ret i32 0
}

declare dso_local i32 @__isoc99_scanf(i8*, ...) #1

; Function Attrs: nounwind readonly
declare dso_local i64 @strlen(i8*) #2

; Function Attrs: nounwind readonly
declare dso_local i32 @strcmp(i8*, i8*) #2

declare dso_local i32 @printf(i8*, ...) #1


!llvm.module.flags = !{!0}
!llvm.ident = !{!1}

!0 = !{i32 1, !"wchar_size", i32 4}
!1 = !{!"clang version 10.0.0-4ubuntu1 "}
